target datalayout = "e-m:e-p270:32:32-p271:32:32-p272:64:64-i64:64-i128:128-f80:128-n8:16:32:64-S128"
target triple = "x86_64-pc-linux-gnu"

%struct.t_fileio = type { ptr, i8, i8, i8, %"class.std::filesystem::__cxx11::path", ptr, i32, i32, ptr, ptr, %struct.tMPI_Lock }
%"class.std::filesystem::__cxx11::path" = type { %"class.std::__cxx11::basic_string", %"struct.std::filesystem::__cxx11::path::_List" }
%"class.std::__cxx11::basic_string" = type { %"struct.std::__cxx11::basic_string<char>::_Alloc_hider", i64, %union.anon }
%"struct.std::__cxx11::basic_string<char>::_Alloc_hider" = type { ptr }
%union.anon = type { i64, [8 x i8] }
%"struct.std::filesystem::__cxx11::path::_List" = type { %"class.std::unique_ptr" }
%"class.std::unique_ptr" = type { %"struct.std::__uniq_ptr_data" }
%"struct.std::__uniq_ptr_data" = type { %"class.std::__uniq_ptr_impl" }
%"class.std::__uniq_ptr_impl" = type { %"class.std::tuple" }
%"class.std::tuple" = type { %"struct.std::_Tuple_impl" }
%"struct.std::_Tuple_impl" = type { %"struct.std::_Head_base.1" }
%"struct.std::_Head_base.1" = type { ptr }
%struct.tMPI_Lock = type { %struct.tMPI_Spinlock }
%struct.tMPI_Spinlock = type { i32, [60 x i8] }
%class.anon = type { i8 }

@.str = private unnamed_addr constant [20 x i8] c"fio->xdr != nullptr\00", align 1
@.str.1 = private unnamed_addr constant [40 x i8] c"Implementation error: NULL XDR pointers\00", align 1
@"__PRETTY_FUNCTION__._ZZ14gmx_fio_getxdrP8t_fileioENK3$_0clEv" = private unnamed_addr constant [71 x i8] c"auto gmx_fio_getxdr(t_fileio *)::(anonymous class)::operator()() const\00", align 1
@.str.2 = private unnamed_addr constant [127 x i8] c"generated/home/dtcxzyw/WorkSpace/Projects/compilers/llvm-opt-benchmark/bench/gromacs/gromacs/src/gromacs/fileio/gmxfio_xdr.cpp\00", align 1

; Function Attrs: inlinehint mustprogress uwtable
define internal void @"_ZZ14gmx_fio_getxdrP8t_fileioENK3$_0clEv"(ptr noundef nonnull align 1 dereferenceable(1) %0) #5 align 2 {
  %2 = alloca ptr, align 8
  store ptr %0, ptr %2, align 8, !tbaa !62
  call void @_ZN3gmx8internal13assertHandlerEPKcS2_S2_S2_i(ptr noundef @.str, ptr noundef @.str.1, ptr noundef @"__PRETTY_FUNCTION__._ZZ14gmx_fio_getxdrP8t_fileioENK3$_0clEv", ptr noundef @.str.2, i32 noundef 107) #17
  unreachable
}

; Function Attrs: mustprogress uwtable
define noundef ptr @_Z14gmx_fio_getxdrP8t_fileio(ptr noundef %0) #2 {
  %2 = alloca ptr, align 8
  %3 = alloca ptr, align 8
  %4 = alloca %class.anon, align 1
  store ptr %0, ptr %2, align 8, !tbaa !57
  call void @llvm.lifetime.start.p0(i64 8, ptr %3) #15
  store ptr null, ptr %3, align 8, !tbaa !60
  %5 = load ptr, ptr %2, align 8, !tbaa !57
  call void @_Z12gmx_fio_lockP8t_fileio(ptr noundef %5)
  %6 = load ptr, ptr %2, align 8, !tbaa !57
  %7 = getelementptr inbounds nuw %struct.t_fileio, ptr %6, i32 0, i32 5
  %8 = load ptr, ptr %7, align 8, !tbaa !61
  %9 = icmp ne ptr %8, null
  call void @llvm.lifetime.start.p0(i64 1, ptr %4) #15
  br i1 %9, label %10, label %11

10:                                               ; preds = %1
  br label %12

11:                                               ; preds = %1
  call void @"_ZZ14gmx_fio_getxdrP8t_fileioENK3$_0clEv"(ptr noundef nonnull align 1 dereferenceable(1) %4)
  br label %12

12:                                               ; preds = %11, %10
  call void @llvm.lifetime.end.p0(i64 1, ptr %4) #15
  %13 = load ptr, ptr %2, align 8, !tbaa !57
  %14 = getelementptr inbounds nuw %struct.t_fileio, ptr %13, i32 0, i32 5
  %15 = load ptr, ptr %14, align 8, !tbaa !61
  store ptr %15, ptr %3, align 8, !tbaa !60
  %16 = load ptr, ptr %2, align 8, !tbaa !57
  call void @_Z14gmx_fio_unlockP8t_fileio(ptr noundef %16)
  %17 = load ptr, ptr %3, align 8, !tbaa !60
  call void @llvm.lifetime.end.p0(i64 8, ptr %3) #15
  ret ptr %17
}