; Function Attrs: mustprogress uwtable
define noundef ptr @_Z14gmx_fio_getxdrP8t_fileio(ptr noundef %0) local_unnamed_addr #3 {
  tail call void @_Z12gmx_fio_lockP8t_fileio(ptr noundef %0)
  %2 = getelementptr inbounds nuw i8, ptr %0, i64 56
  %3 = load ptr, ptr %2, align 8, !tbaa !35
  %.not = icmp eq ptr %3, null
  br i1 %.not, label %4, label %5

4:                                                ; preds = %1
  tail call void @_ZN3gmx8internal13assertHandlerEPKcS2_S2_S2_i(ptr noundef nonnull @.str, ptr noundef nonnull @.str.1, ptr noundef nonnull @"__PRETTY_FUNCTION__._ZZ14gmx_fio_getxdrP8t_fileioENK3$_0clEv", ptr noundef nonnull @.str.2, i32 noundef 107) #17
  unreachable

5:                                                ; preds = %1
  tail call void @_Z14gmx_fio_unlockP8t_fileio(ptr noundef nonnull %0)
  ret ptr %3
}